COMND	MACRO M1113  27-JUL-87 15:45
TABLE OF CONTENTS

     2-    3	MODIFIED 2-AUG-81 C G WILSON, CHARLEVILLE, AUSTRALIA.
COMND	MACRO M1113  27-JUL-87 15:45  PAGE 2


      1						.TITLE	COMND
      2						.IDENT	/M02/
      3					.SBTTL	MODIFIED 2-AUG-81 C G WILSON, CHARLEVILLE, AUSTRALIA.
      4					;	SIG02 CODE NOT SUITABLE FOR RT11 USE HAS BEEN ALTERED
      5					;	FROM TRYING TO PUT INFORMATION BACK INTO INPUT BUFFER
      6					;	(AS COMMANDS CAN CROSS BUFFER BOUNDARIES IN RT11).  NOW
      7					;	USES TEMPORARY BUFFER TMPBUF, DEFINED IN RNRT11 & RNFIO.
      8
      9					;
     10					; COPYRIGHT (C) 1976
     11					; DIGITAL EQUIPMENT CORPORATION, MAYNARD, MASS.
     12					;
     13					; THIS SOFTWARE IS FURNISHED UNDER  A LICENSE FOR USE ONLY  ON  A
     14					; SINGLE COMPUTER SYSTEM AND MAY BE  COPIED ONLY WITH  THE INCLU-
     15					; SION OF  THE  ABOVE  COPYRIGHT NOTICE.  THIS SOFTWARE,  OR  ANY
     16					; OTHER COPIES THEREOF, MAY NOT BE  PROVIDED  OR  OTHERWISE  MADE
     17					; AVAILABLE TO ANY OTHER PERSON EXCEPT  FOR  USE  ON  SUCH SYSTEM
     18					; AND TO  ONE WHO AGREES  TO  THESE LICENSE  TERMS.  TITLE TO AND
     19					; OWNERSHIP OF THE SOFTWARE SHALL AT ALL TIMES REMAIN IN DEC.
     20					;
     21					; THE INFORMATION IN THIS SOFTWARE  IS  SUBJECT TO CHANGE WITHOUT
     22					; NOTICE AND SHOULD NOT BE CONSTRUED  AS  A COMMITMENT BY DIGITAL
     23					; EQUIPMENT CORPORATION.
     24					;
     25					; DEC ASSUMES NO RESPONSIBILITY FOR THE USE OR RELIABILITY OF ITS
     26					; SOFTWARE ON EQUIPMENT WHICH IS NOT SUPPLIED BY DEC.
     27					;
     28					; VERSION 02
     29					;
     30					; AUTHOR: L. WADE 1-JUN-72
     31					;
     32					; MODIFIED BY:
     33					;
     34					;	E. POLLACK U. OF W. 19-DEC-73
     35					;
     36					;	D. N. CUTLER 27-JUL-75
     37					;
     38					; SIG MODIFICATIONS								;**NEW**
     39					;	SIG02 - DON'T LOSE CHARACTERS FROM THE COMMAND TABLE LOOKUP		;**NEW**
     40					;										;**NEW**
     41					; COMMAND SCANNER
     42					;
     43					; READ AND DISPATCH ON COMMAND
     44					;
     45					; INPUTS:
     46					;
     47					;	R1=PERIOD CHARACTER.
     48					;	R5=ADDRESS OF FLAG WORD (F.1).
     49					;
     50
     51						.ENABL	LSB
     52	000000	012767 	177777G	000000G	CMN::	MOV	#CMBF-1,CMSTP	;INITIALIZE DESCRIPTOR
     53	000006	012767 	177777G	000000G		MOV	#CMBF-1,CMST2	;
     54	000014	012704 	000002G			MOV	#SDINP+2,R4	;POINT TO SECONDARY INPUT LINE DESCRIPTOR
     55	000020	012714 	177777G			MOV	#SDBUF-1,(R4)	;INITIALIZE DESCRIPTOR
     56	000024	011444 				MOV	(R4),-(R4)	;
     57	000026	004767 	000344 			CALL	70$		;WRITE PERIOD INTO SECONDARY BUFFER
COMND	MACRO M1113  27-JUL-87 15:45  PAGE 2-1
MODIFIED 2-AUG-81 C G WILSON, CHARLEVILLE, AUSTRALIA.

     58	000032	004767 	000230 			CALL	CMCIN		;GET FIRST CHARACTER OF COMMAND
     59	000036					CMPNE	#SEMI,R1,5$	;NOT A COMMENT?
     60	000044	000167 	000000G			JMP	COMNT		;PROCESS COMMENT
     61	000050	012767 	000000C	000000G	5$:	MOV	#<ECTAB-CMTAB>/4,NCNT ;SET LENGTH OF COMMAND TABLE
     62	000056	012703 	000000G			MOV	#CMTAB,R3	;POINT TO COMMAND TABLE
     63	000062	016302 	000002 		CM2:	MOV	2(R3),R2	;PREPARE TO READ DEFINED COMMAND
     64	000066	016767 	000000G	000000G		MOV	CMSTP,T1	;PREPARE POINTER TO READ USER'S COMMAND
     65	000074	016767 	000000G	000000G	CM4:	MOV	CMST2,T2	; ..
     66	000102	012704 	000000G			MOV	#T1,R4		;GET USER'S COMMAND CHARACTER
     67	000106	004767 	000000G			CALL	GCI		; ..
     68	000112	000136'				.WORD	CM5		;NEED MORE FROM FILE
     69	000114	112200 				MOVB	(R2)+,R0	;GET NEXT COMMAND CHARACTER
     70	000116	100415 				BMI	CM6		;IF MI END OF COMMAND
     71	000120					CMPEQ	R1,R0,CM4	;CHARACTERS MATCH?
     72	000124	022323 			10$:	CMP	(R3)+,(R3)+	;NO. TRY NEXT COMMAND.
     73	000126	005367 	000000G			DEC	NCNT
     74	000132	003353 				BGT	CM2
     75	000134	000471 				BR	ILCM1		;NO MORE TO TRY. ERROR
     76	000136	004767 	000124 		CM5:	CALL	CMCIN		;READ USER'S COMMAND FROM FILE
     77	000142					CMPEQ	R1,#LF,40$	;END OF LINE?
     78	000150	000751 				BR	CM4		;GO CHECK NEW CHARACTER
     79	000152	004767 	000000G		CM6:	CALL	ALPH1		;ALPHABETIC?
     80	000156	103362 				BCC	10$		;IF CC YES
     81	000160	105742 				TSTB	-(R2)		;POINT TO TERMINAL BYTE
     82	000162					BITEQ	#SPECF,(R5),23$	;NO SPECIAL PROCESSING ACTIVE?
     83	000170					CMPEQ	(R3),CMADR,30$	;COMMAND ADDRESS MATCH?
     84	000176					BITNE	#LITFG,(R5),50$	;LITERAL PROCESSING ACTIVE?
     85	000204				23$:	BITNEB	#ENDF,(R2),ILCM1 ;UNEXPECTED END DIRECTIVE?
     86	000212				27$:	BITNEB	(R2),(R5),ILCM1	;COMMAND NOT LEGAL IN CURRENT CONTEXT?
     87	000216	110167 	000000G		30$:	MOVB	R1,GCSCH	;SAVE TERMINAL BYTE
     88
     89					;%%AUST-1	MOV	T2,R4		;ANY CHARACTERS LEFT IN COMMAND BUFFER?	;SIG02
     90					;%%AUST-1	SUB	T1,R4		;					;SIG02
     91					;%%AUST-1	BLE	31$		;					;SIG02
     92					;%%AUST-1	SUB	R4,HFIN+2	;IF SO, PUT THEM BACK IN THE INPUT	;SIG02
     93					;%%AUST-1	ADD	R4,HFIN+4	; BUFFER				;SIG02
     94
     95	000222	026767 	000000G	000000G		CMP	T1,T2		;SEE IF ANY TAIL OF COMMAND LEFT		;%%AUST-1
     96	000230	002015 				BGE	31$		;NO						;%%AUST-1
     97	000232	012704 	000000G			MOV	#TMPBUF,R4	;YES - PUT IT INTO TEMPORARY BUFFER		;%%AUST-1
     98	000236	010467 	000000G			MOV	R4,TMPPNT							;%%AUST-1
     99	000242	117724 	000000G		131$:	MOVB	@T1,(R4)+	;TRANSFER BYTES INTO TEMPORARY STORAGE		;%%AUST-1
    100	000246	005267 	000000G			INC	T1								;%%AUST-1
    101	000252	026767 	000000G	000000G		CMP	T1,T2								;%%AUST-1
    102	000260	101770 				BLOS	131$								;%%AUST-1
    103	000262	105014 				CLRB	(R4)		;TERMINATE WITH A NULL				;%%AUST-1
    104	000264				31$:										;SIG02
    105
    106	000264	000207 				RETURN
    107	000266	004767 	000000G		CMCIN:	CALL	CCIN		;READ FROM INPUT FILE
    108	000272	004767 	000100 			CALL	70$		;WRITE CHARACTER INTO SECONDARY BUFFER
    109	000276	020127 	000172 			CMP	R1,#172		;CHECK FOR LOWER CASE LETTERS
    110	000302	003032 				BGT	60$
    111	000304	020127 	000140 			CMP	R1,#140
    112	000310	003427 				BLE	60$
    113	000312	042701 	000040 			BIC	#40,R1		;CONVERT TO UPPER CASE
    114	000316	000424 				BR	60$		;
COMND	MACRO M1113  27-JUL-87 15:45  PAGE 2-2
MODIFIED 2-AUG-81 C G WILSON, CHARLEVILLE, AUSTRALIA.

    115	000320	004767 	177742 		ILCM1:	CALL	CMCIN		;NOW ADD REST OF LINE
    116	000324					CMPNE	R1,#LF,ILCM1	;NOT END OF LINE?
    117	000332				40$:	BITNE	#LITFG,(R5),50$	;LITERAL PROCESSING ACTIVE?
    118	000340	110167 	000000G			MOVB	R1,GCSCH	;SAVE LINE FEED CHARACTER
    119	000344	005001 				CLR	R1		;CONVERT STRING TO ASCIZ
    120	000346	004767 	000016 			CALL	60$		;STORE NULL CHARACTER IN BUFFER
    121	000352	000167 	000000G			JMP	ILCM		;
    122	000356	005726 			50$:	TST	(SP)+		;CLEAN STACK
    123	000360	105167 	000000G			COMB	$SDISW		;SET SECONDARY INPUT FLAG
    124	000364	000167 	000000G			JMP	TEXT		;PROCESS TEXT
    125	000370	012704 	000000G		60$:	MOV	#CMSTP,R4	;POINT TO COMMAND DESCRIPTOR
    126	000374	000402 				BR	80$		;
    127	000376	012704 	000000G		70$:	MOV	#SDINP,R4	;POINT TO SECONDARY INPUT DESCRIPTOR
    128	000402	000167 	000000G		80$:	JMP	WCI		;WRITE CHARACTER IN COMMAND BUFFER
    129						.DSABL	LSB
    130
    131		000001 				.END
COMND	MACRO M1113  27-JUL-87 15:45  PAGE 2-3
SYMBOL TABLE

ALPH1 = ****** GX	CMST2 = ****** GX	ECTAB = ****** GX	LF    = ****** GX	TEXT  = ****** GX
CCIN  = ****** GX	CMTAB = ****** GX	ENDF  = ****** GX	LITFG = ****** GX	TMPBUF= ****** GX
CMADR = ****** GX	CM2     000062R  	GCI   = ****** GX	NCNT  = ****** GX	TMPPNT= ****** GX
CMBF  = ****** GX	CM4     000074R  	GCSCH = ****** GX	SDBUF = ****** GX	T1    = ****** GX
CMCIN   000266R  	CM5     000136R  	H$$PHN= 000000   	SDINP = ****** GX	T2    = ****** GX
CMN     000000RG 	CM6     000152R  	ILCM  = ****** GX	SEMI  = ****** GX	WCI   = ****** GX
CMSTP = ****** GX	COMNT = ****** GX	ILCM1   000320R  	SPECF = ****** GX	$SDISW= ****** GX

. ABS.	000000	   000
      	000406	   001
ERRORS DETECTED:  0

VIRTUAL MEMORY USED:  695 WORDS  ( 3 PAGES)
DYNAMIC MEMORY:  2414 WORDS  ( 9 PAGES)
ELAPSED TIME:  00:00:13
COMND,[100,30]COMND/-SP=[100,10]RNPRE,COMND
ITLE	RNRT11.MAC	Double Buffered RT-11 INTERFACE FOR RSX RUNOFF
.ENABL	LC
.NLIST	BEX,TOC

.SBTTL	M02-B	15-Aug-81

		.If eq 1
Author:	C G Wilson, 71 Galatea St., Charleville 4470, Australia.

For RUNOFF Version M02: Adapted and rewritten from
	START.MAC
	RNFIO.MAC
	RNORSX.MAC

M01-C [26-Apr-80] Bug fix and general tidying

M01
	OUTPUT which are unnecessary from an RT11 viewpoint, and so
	this has been changed to a dummy routine.  The routine
	to flush the buffer is now OUCLR.

M02-A/2 [5-Aug-81] Double-buffered version.

M02-B/2 [15-Aug-81] Bug fix for non-file structured input devices
		.Endc

						.PSECT
						.PSECT	MESAGE	CON
VER:	.ASCIZ	#Runoff MET

.GLOBL	$INITL,$ULMSW,$ULSSW,$ULNSW,$ERMSG
.GLOBL	FOOTP1,FOOTP2,FOOTP3,XTOP,XBOT
.GLOBL	FFDSW,HYPSW,PAUSW,UPCSW,LGO,LINSET
.GLOBL	EOF,S1
.GLOBL	HGHPAG,LOWPAG,PAGENO,INPERR,OUTERR
.GLOBL	PRMRG,RMARG,INLPG,PNLPG,NLPG

JSW=:44		;Job status word
B.TSPM=:10000	;TT Special mode bit

B.EOF=:20000	;EOF bit in Channel Status Word (CSW)ASCII	A
	.PSECT
	.PRINT	#$$$
.ENDM

.MACRO	TX	A
	.PSECT	MESAGE	CON
	.ASCII	A
	.PSECT
.ENDM
.PAGE
;Data Locations

SPSAV::	0			;For saving SP for re-runs
$SWTCH::0			;Switch register (bits defined in RUNOFF)
ULSWT::	.BLKB	2		;For underscore character

AREA::	.BLKW	6		;Programmed request workspace.
OBLK::	0			;Output block #
50	/RNODOC      /	;Default input & output extensions


TMPPNT::0			;Pointer for temporary input buffer (see COMND)
TMPBUF::.BLKB	134.		;Buffer must equal command buffer CMBF

SVALL:	0			;Loc for LINES value of /S switch
SVALC:	0			;Loc for COLUMNS, ibid
.PAGE
.SBTTL	Double-buffering data:

;The buffer structure consists of a headerr buffer

;INPUT BUFFERS:

;Buffer Header:
IBH::	0		;Pointer to current buffer detail block
IBHC::	0		;Byte count for current buffer
IBHP::	0		;Pointer within current buffer (if 0, eof or error)
IBHB::	0		;Next block to be read
IBHF::	0		;Pointer to buffer to be used by next READ request
IBHR::	0		;Pointer to buffer to be accessed oUS=:4		;Word containing actual number of words in use
B.FLG=:6		;Flag word: 1 ready for user, 0 being processed by
			;	monitor, -1 eof, -2 error.
B.PNT=:10		;Pointer to data area of buffer.

IB1H::	.WORD	IB2H	;First detail section
	.BLKW	4
IB2H::	.WORD	IB1H	;Second.
	.BLKW	4

;OUTPUT BUFFER BLOCKS:

OBH::	0
OBHC::	0
OBHP::	0
OOFF/.END START
	MOV	SP,SPSAV
RUNOFF::
	MOV	SPSAV,SP
	.SRESET
	.RCTRLO
	.SETTOP	LIMIT+2

	MOV	LIMIT+2,R1	;Allocate room for 6 queue elements
	.QSET	R1,#6
	MOV	R0,HLIMIT

	MOV	#1,NUMBUF	;Initially set for 1-block buffers

	CALL	$INITL		;Initialize variables
	CLR	TMPPNT		;And temporary buffer pointer
	CLR	SVALL		;Clear locs for /t is no hyphenation.

	MOV	(SP)+,R4	;# of switches
	BNE	NEXSWT
	  JMP	NOSWT		;None specified

NEXSWT:
	MOV	(SP)+,R1	;b15 set if value specified, b14-8 file on which
				; switch specified, b7-0 ascii value of switch.
	BIC	#40,R1		;In case lower case
	MOV	(SP),R2		;Value

	CMPB	R1,#'U		;/U=Underscore :B backspace :S simulate :L lin	;/U:B
5$:	JMP	ENDSWT
10$:
	CMP	R2,(PC)+
	.RAD50	/S/
	BNE	20$
	COMB	$ULSSW		;/U:S
	BR	ENDSWT
20$:
	CMP	R2,(PC)+
	.RAD50	/N/
	BNE	30$
	COMB	$ULNSW		;/U:N
	BR	ENDSWT
30$:
	CMP	R2,(PC)+	;/U:L
	.RAD50	/L/
	BNE	ILLSWT
	BR	ENDSWT

CHKF:
	CMPB	R1,#'F		;/F - simulate ff's with lf's
	BNE	CHKH
	TST	R1		;Value specified?
	BLT	NOVCH
	BR	ENDSWT

CHKP:
	CMPB	R1,#'P		;/P - Pause between pages
	BNE	CHKR
	TST	R1
	BLT	NOVAL
	BIS	#PAUSW,$SWTCH
	BR	ENDSWT

CHKR:
	CMPB	R1,#'R		;/R:<low page limit>:<high page limit>
	BNE	CHKC
	TST	R1		;/R requires a value
	BGE	ILLVAL
	TST	HGHPAG		;First one encountered should be high limit
	BGE	10$
	MOV	R2,HGHPAG
	BR	ENDSWT
;/B - Number of blocks per buffer
	BNE	CHKS
	TST	R1
	BGE	MISVAL		;Error if no value
	MOV	R2,NUMBUF
	BR	ENDSWT

CHKS:
	CMPB	R1,#'S		;/S:lines:columns - Paper Size
	BNE	ILLSWT
	TST	R1		;Must have a value
	BEQ	MISVAL
	CMP	R2,#10.		;And that within reasonable range
	BLT	ESVAL
	TST	SVALL		;See if first or second value
	BEQ	10$		;FirTX	<"	/R:low:high, /B, & /S:lines:columns"<0>>
	JMP	RUNOFF
ILLVAL:
	TYPE	<"/R switch requires 2 values"<0>>
	JMP	RUNOFF
NOVAL:
	TYPE	<"/F, /C, /H, & /P may not have values"<0>>
	JMP	RUNOFF
MISVAL:
	TYPE	<"/B & /S require a value"<0>>
	JMP	RUNOFF
ESVAL:
	TYPE	<"/S value out of range"<0>>
	JMP	RUNOFF

ENDSWT:
	TST	R1		;Value spe                                                                                                                                                                                                                                                                                                                                                                                                                                                                                                                                                                                                                                                                                                                                                                                                                                                                                                                                                                                                                                                                                                                                                                                                                                                                                                                                                                                                                                                                                                                                                                                                                                                                                                                                                                                                                                                                                                                                                                                                                                                                                                                                                                                                                                                                                                                                                                                                                                                                                                                                                                                                                                                                                                                                                                                                                                                                                                                                                                                                                                                                                                                                                                                                                                                                                                                                                                                                                                                                                                                                                                                                                                                                                                                                                                                                                                                                                                                                                                                                                                                                                                                                                                                                                                                                                                                                                                                                                                                                                                                                                                                                                                                                                                                                                                                                                                                                                                                                                                                                                                                                                                                                                                                                                                                                                                                                                                                                                                                                                                                                                                                                                                                                                                                                                                                                                                                                                                                                                                                                                                                                                                                                                                                                                                                                                                                                                                                                                                                                                                                                                                                                                                                                                                                                                                                                                                                                                                                                                                                                                                                                                                                                                                                                                                                                                                                                                                                                                                                                                                                                                                                                                                                                                                                                                                                                                                                                                                                                                                                                                                                                                                                                                                                                                                                                                                                                                                                                                                                                                                                                                                                                                                                                                                                                                                                                                                                                                                                                                                                                                                                                                                                                                                                                                                                                                                                                                                                                                                                                                                                                                                                                                                                                                                                                                                                                                                                                                                                                                                                                                                                                                                                                                                                                                                                                                                                                                                                                                                                                                                                                                                                                                                                                                                                                                                                                                                                                                                                                                                                                                                                                                                                                                                                                                                                                                                                                                                                                                                                                                                                                                                                                                                                                                                                                                                                                                                                                                                                                                                                                                                                                                                                                                                                                                                                                                                                                                                                                                                                                                                                                                                                                                                                                                                                                                                                                                                                                                                                                                                                                                                                                                                                                                                                                                                                                                                                                                                                                                                                                                                                                                                                                                                                                                                                                                                                                                                                                                                                                                                                                                                                                                                                                                                                                                                                                                                                                                                                                                                                                                                                                                                                                                                                                                                                                                                                                                                                                                                                                                                                                                                                                                                                                                                                                                                                                                                                                                                                                                                                                                                                                                                                                                                                                                                                                                                                                                                                                                                                                                                                                                                                                                                                                                                                                                                                                                                                                                                                                                                                                                                                                                                                                                                                                                                                                                                                                                                                                                                                                                                                                                                                                                                                                                                                                                                                                                                                                                                                                                                                                                                                                                                                                                                                                                                                                                                                        
